target datalayout = "e-m:e-p270:32:32-p271:32:32-p272:64:64-i64:64-i128:128-f80:128-n8:16:32:64-S128"
target triple = "x86_64-pc-linux-gnu"

%struct.slurmdb_clus_res_rec_t = type { ptr, i32 }

; Function Attrs: nounwind uwtable
define internal void @_free_clus_res_rec_members(ptr noundef %0) #0 {
  %2 = alloca ptr, align 8
  store ptr %0, ptr %2, align 8
  %3 = load ptr, ptr %2, align 8
  %4 = icmp ne ptr %3, null
  br i1 %4, label %5, label %8

5:                                                ; preds = %1
  %6 = load ptr, ptr %2, align 8
  %7 = getelementptr inbounds nuw %struct.slurmdb_clus_res_rec_t, ptr %6, i32 0, i32 0
  call void @slurm_xfree(ptr noundef %7)
  br label %8

8:                                                ; preds = %5, %1
  ret void
}

; Function Attrs: nounwind uwtable
define dso_local void @slurmdb_init_clus_res_rec(ptr noundef %0, i1 noundef zeroext %1) #0 {
  %3 = alloca ptr, align 8
  %4 = alloca i8, align 1
  store ptr %0, ptr %3, align 8
  %5 = zext i1 %1 to i8
  store i8 %5, ptr %4, align 1
  %6 = load ptr, ptr %3, align 8
  %7 = icmp ne ptr %6, null
  br i1 %7, label %9, label %8

8:                                                ; preds = %2
  br label %18

9:                                                ; preds = %2
  %10 = load i8, ptr %4, align 1, !range !12, !noundef !13
  %11 = trunc i8 %10 to i1
  br i1 %11, label %12, label %14

12:                                               ; preds = %9
  %13 = load ptr, ptr %3, align 8
  call void @_free_clus_res_rec_members(ptr noundef %13)
  br label %14

14:                                               ; preds = %12, %9
  %15 = load ptr, ptr %3, align 8
  call void @llvm.memset.p0.i64(ptr align 8 %15, i8 0, i64 16, i1 false)
  %16 = load ptr, ptr %3, align 8
  %17 = getelementptr inbounds nuw %struct.slurmdb_clus_res_rec_t, ptr %16, i32 0, i32 1
  store i32 -2, ptr %17, align 8
  br label %18

18:                                               ; preds = %14, %8
  ret void
}