; Function Attrs: nounwind uwtable
define dso_local void @slurmdb_init_clus_res_rec(ptr noundef %0, i1 noundef zeroext %1) local_unnamed_addr #0 {
  %.not = icmp eq ptr %0, null
  br i1 %.not, label %7, label %3

3:                                                ; preds = %2
  br i1 %1, label %4, label %5

4:                                                ; preds = %3
  tail call void @slurm_xfree(ptr noundef nonnull %0) #19
  br label %5

5:                                                ; preds = %4, %3
  tail call void @llvm.memset.p0.i64(ptr noundef nonnull align 8 dereferenceable(16) %0, i8 0, i64 16, i1 false)
  %6 = getelementptr inbounds nuw i8, ptr %0, i64 8
  store i32 -2, ptr %6, align 8
  br label %7

7:                                                ; preds = %2, %5
  ret void
}